
NMS.elf:     file format elf32-littleriscv


Disassembly of section .vectors:

00000000 <_stack_start-0x10000>:
  // external interrupts are handled by the same callback
  // until compiler supports IRQ routines
  .org 0x00
  .rept 31
  nop
  .endr
   0:	00000013          	nop
   4:	00000013          	nop
   8:	00000013          	nop
   c:	00000013          	nop
  10:	00000013          	nop
  14:	00000013          	nop
  18:	00000013          	nop
  1c:	00000013          	nop
  20:	00000013          	nop
  24:	00000013          	nop
  28:	00000013          	nop
  2c:	00000013          	nop
  30:	00000013          	nop
  34:	00000013          	nop
  38:	00000013          	nop
  3c:	00000013          	nop
  40:	00000013          	nop
  44:	00000013          	nop
  48:	00000013          	nop
  4c:	00000013          	nop
  50:	00000013          	nop
  54:	00000013          	nop
  58:	00000013          	nop
  5c:	00000013          	nop
  60:	00000013          	nop
  64:	00000013          	nop
  68:	00000013          	nop
  6c:	00000013          	nop
  70:	00000013          	nop
  74:	00000013          	nop
  78:	00000013          	nop
  jal x0, default_exc_handler
  7c:	2100006f          	j	28c <default_exc_handler>

  // reset vector
  .org 0x80
  jal x0, reset_handler
  80:	2100006f          	j	290 <reset_handler>

  // illegal instruction exception
  .org 0x84
  jal x0, default_exc_handler
  84:	2080006f          	j	28c <default_exc_handler>

  // ecall handler
  .org 0x88
  jal x0, default_exc_handler
  88:	2040006f          	j	28c <default_exc_handler>

Disassembly of section .text:

0000008c <_stext>:

.global main

main:                   

    li x9,0x10000000    # BOX_INFO_BASE_ADDR
  8c:	100004b7          	lui	s1,0x10000
    li x28,0x10000438   # MAX_BOX_BASE_ADDR
  90:	10000e37          	lui	t3,0x10000
  94:	438e0e13          	addi	t3,t3,1080 # 10000438 <_stack_start+0xfff0438>
    li x30,0x10000460   # RES_BASE_ADDR      # 栈指针用来存放基地址
  98:	10000f37          	lui	t5,0x10000
  9c:	460f0f13          	addi	t5,t5,1120 # 10000460 <_stack_start+0xfff0460>

    /* constants */
    li x5,0x11                  /* NUM_BOX=17*/
  a0:	01100293          	li	t0,17
    li x6,0x3                  /* NUM_CLASS=3*/
  a4:	00300313          	li	t1,3
    #li x5,0xe                  /* NUM_BOX=14*/
    #li x6,0x2                  /* NUM_CLASS=2*/
    li x27,0x2b67             /* 11111 */
  a8:	00003db7          	lui	s11,0x3
  ac:	b67d8d93          	addi	s11,s11,-1177 # 2b67 <_min_stack+0xb67>
    li x31,0x50               /* 80 */
  b0:	05000f93          	li	t6,80

000000b4 <BEGIN>:

    # find_max
BEGIN:
    add x25,x0,x0        # flag=0
  b4:	00000cb3          	add	s9,zero,zero
    add x7,x0,x0         # i=0    for(i=0;i<NUM_CLASS;i++)
  b8:	000003b3          	add	t2,zero,zero

000000bc <BACK2>:

BACK2:     
    addrtwo x18,x28,x7   # max_box[i]的绝对地址
  bc:	007e190b          	addrtwo	s2,t3,t2
    sw x27,0x0(x18)      # max_box[i]=-1
  c0:	01b92023          	sw	s11,0(s2)
    # addi x7,x7,1         # i++
    # blt x7,x6,BACK2      # if i < NUM_CLASS, for loop continues
    plusonelt x7,x6,BACK2
  c4:	fe63ac8b          	plusonelt	t2,t1,bc <BACK2>
# ====================================================================== #

# 否则一个 loop 循环结束，进行下一个 loop 循环
    add x7,x0,x0         # i=0    for(i=0;i<NUM_BOX;i++)
  c8:	000003b3          	add	t2,zero,zero

000000cc <BACK3>:
BACK3:  
    addrfive x18,x9,x7
  cc:	0274990b          	addrfive	s2,s1,t2
    lw x20,0x1c(x18)     # 偏移量为28(dec)   x20 存 box_info[i].valid_bit
  d0:	01c92a03          	lw	s4,28(s2)
    lw x22,0x0(x18)      # x22 有box_info[i].id
  d4:	00092b03          	lw	s6,0(s2)
    flw f18,0x04(x18)    # f18=box_info[i].score
  d8:	00492907          	flw	fs2,4(s2)
    beq x20,x0,MARK3     # 若 box_info[i].valid_bit 为0，则跳转到 loop 最尾部
  dc:	020a0663          	beqz	s4,108 <MARK3>
    addi x25,x0,1        # flag=1
  e0:	00100c93          	li	s9,1
    lw x21,0x18(x18)     # 偏移量为24(dec)   x21 存 box_info[i].class_
  e4:	01892a83          	lw	s5,24(s2)
    addrtwo x18,x28,x21  # x18存的是 max_box[box_info[i].class_] 的绝对地址
  e8:	015e190b          	addrtwo	s2,t3,s5
    lw x23,0x0(x18)      # 最大box id
  ec:	00092b83          	lw	s7,0(s2)
    beq x23,x27,MARK51   # if max_box[box_info[i].class_]==-1
  f0:	13bb8e63          	beq	s7,s11,22c <MARK51>
    nop     
  f4:	00000013          	nop
    addrfive x18,x9,x23  # box_info[max_box[box_info[i].class_]] 绝对地址
  f8:	0374990b          	addrfive	s2,s1,s7
    flw f19,0x04(x18)    # f19=box_info[max_box[box_info[i].class_]].score
  fc:	00492987          	flw	fs3,4(s2)
    flt.s x24,f19,f18    # if box_info[max_box[box_info[i].class_]].score<box_info[i].score,x24=1
 100:	a1299c53          	flt.s	s8,fs3,fs2
    bne x24,x0,MARK52    # if x24=1,jump
 104:	120c1863          	bnez	s8,234 <MARK52>

00000108 <MARK3>:
MARK3:
    # addi x7,x7,1         # i++
    # blt x7,x5,BACK3      # if i < NUM_BOX, for loop continues
    plusonelt x7,x5,BACK3
 108:	fc53a28b          	plusonelt	t2,t0,cc <BACK3>
# ======================================================================= #

    beq x25,x0,MARK61    # if flag=0, jump  
 10c:	120c8a63          	beqz	s9,240 <MARK61>
# 第一次結束是16000

    add x7,x0,x0         # i=0    for(i=0;i<NUM_CLASS;i++)
 110:	000003b3          	add	t2,zero,zero

00000114 <BACK4>:
BACK4:
    addrtwo x18,x28,x7   # max_box[i]的绝对地址
 114:	007e190b          	addrtwo	s2,t3,t2
    lw x23,0x0(x18)      # max_box[i]的值
 118:	00092b83          	lw	s7,0(s2)
    beq x23,x27,FORWORD1 # if max_box[i]==-1,jump
 11c:	01bb8a63          	beq	s7,s11,130 <FORWORD1>

    addrfive x18,x9,x23  # x18 里装的是 box_info[i].id 的绝对地址
 120:	0374990b          	addrfive	s2,s1,s7
    sw x0,0x1c(x18)      # box_info[max_box[i]].valid_bit=false
 124:	00092e23          	sw	zero,28(s2)
    sw x23,0x0(x30)       # 存到输出区
 128:	017f2023          	sw	s7,0(t5)
# ERROR!
    addi x30,x30,4         # 栈指针向后移一位
 12c:	004f0f13          	addi	t5,t5,4

00000130 <FORWORD1>:

FORWORD1:
    # addi x7,x7,1         # i++
    # blt x7,x6,BACK4      # if i < NUM_CLASS, for loop continues
    plusonelt x7,x6,BACK4
 130:	fe63a28b          	plusonelt	t2,t1,114 <BACK4>

    addi x29,x0,1        # find_max() return 1
 134:	00100e93          	li	t4,1

00000138 <BACK61>:
BACK61:
    beq x29,x0,OVER          # if find_max() return 0
 138:	100e8863          	beqz	t4,248 <OVER>
# ======================================================================= #


# delete_overlap
    fadd.s f1,f0,f0        # son=0.0
 13c:	000070d3          	fadd.s	ft1,ft0,ft0
    fadd.s f2,f0,f0        # mother=0.0
 140:	00007153          	fadd.s	ft2,ft0,ft0
    fadd.s f3,f0,f0        # IoU=0.0
 144:	000071d3          	fadd.s	ft3,ft0,ft0
    addi x7,x0,0         # in while loop,  init i=0
 148:	00000393          	li	t2,0

0000014c <BACK1>:
# 第一次開始是17300
BACK1:               # for(i=0;i<NUM_BOX;i++)
    addrfive x18,x9,x7   # x18 里装的是 box_info[i].id 的绝对地址
 14c:	0274990b          	addrfive	s2,s1,t2
    lw x20,0x1c(x18)     # 偏移量为28(dec)   x20 存 box_info[i].valid_bit
 150:	01c92a03          	lw	s4,28(s2)
    beq x20,x0,MARK2     # 若 box_info[i].valid_bit 为0，则跳转到 loop 最尾部
 154:	0a0a0e63          	beqz	s4,210 <MARK2>
 
    flw f18,0x08(x18)    # x1=box_info[i].x1
 158:	00892907          	flw	fs2,8(s2)
    flw f19,0x0c(x18)    # y1=box_info[i].y1
 15c:	00c92987          	flw	fs3,12(s2)
    flw f20,0x10(x18)    # x2=box_info[i].x2
 160:	01092a07          	flw	fs4,16(s2)
    flw f21,0x14(x18)    # y2=box_info[i].y2
 164:	01492a87          	flw	fs5,20(s2)

    lw x21,0x18(x18)     # box_info[i].class_
 168:	01892a83          	lw	s5,24(s2)
    addrtwo x18,x28,x21  # x18 里装的是 max_box 的绝对地址
 16c:	015e190b          	addrtwo	s2,t3,s5
    lw x23,0x0(x18)      # max_box[box_info[i].class_] 内容
 170:	00092b83          	lw	s7,0(s2)

    addrfive x18,x9,x23  # x18 里装的是最大 box 的绝对地址
 174:	0374990b          	addrfive	s2,s1,s7

    flw f22,0x08(x18)    # a1=box_info[max_box[box_info[i].class_]].x1
 178:	00892b07          	flw	fs6,8(s2)
    flw f23,0x0c(x18)    # b1=box_info[max_box[box_info[i].class_]].y1
 17c:	00c92b87          	flw	fs7,12(s2)
    flw f24,0x10(x18)    # a2=box_info[max_box[box_info[i].class_]].x2
 180:	01092c07          	flw	fs8,16(s2)
    flw f25,0x14(x18)    # b2=box_info[max_box[box_info[i].class_]].y2
 184:	01492c87          	flw	fs9,20(s2)

    fmax.s f28,f18,f22   # xx1
 188:	29691e53          	fmax.s	ft8,fs2,fs6
    fmin.s f29,f20,f24   # xx2
 18c:	298a0ed3          	fmin.s	ft9,fs4,fs8
    fmax.s f30,f19,f23   # yy1
 190:	29799f53          	fmax.s	ft10,fs3,fs7
    fmin.s f31,f21,f25   # yy2
 194:	299a8fd3          	fmin.s	ft11,fs5,fs9

# 计算 mother
    
    fsubabs.s f4,f18,f20  # delta_x1=|x1-x2|
 198:	05497253          	fsubabs.s	ft4,fs2,fs4
    fsubabs.s f5,f19,f21  # delta_y1=|y1-y2|
 19c:	0559f2d3          	fsubabs.s	ft5,fs3,fs5
    fsubabs.s f6,f22,f24  # delta_x2=|a1-a2|
 1a0:	058b7353          	fsubabs.s	ft6,fs6,fs8
    fsubabs.s f7,f23,f25  # delta_y2=|b1-b2|
 1a4:	059bf3d3          	fsubabs.s	ft7,fs7,fs9

    fmul.s f2,f4,f5         # mother=delta_x1*delta_y1
 1a8:	10527153          	fmul.s	ft2,ft4,ft5
    fmadd.s f2,f6,f7,f2     # mother=delta_x1*delta_y1+delta_x2*delta_y2 
 1ac:	10737143          	fmadd.s	ft2,ft6,ft7,ft2

# 计算 son
    fadd.s f4,f18,f20      # xmid1=x1+x2
 1b0:	01497253          	fadd.s	ft4,fs2,fs4
    fadd.s f5,f22,f24      # xmid2=a1+a2
 1b4:	018b72d3          	fadd.s	ft5,fs6,fs8
    fadd.s f6,f19,f21      # ymid1=y1+y2
 1b8:	0159f353          	fadd.s	ft6,fs3,fs5
    fadd.s f7,f23,f25      # ymid2=b1+b2
 1bc:	019bf3d3          	fadd.s	ft7,fs7,fs9

    fsubabs.s f22,f4,f5       # |xmid1-xmid2|
 1c0:	04527b53          	fsubabs.s	fs6,ft4,ft5
    fsubabs.s f23,f6,f7       # |ymid2-ymid1|
 1c4:	04737bd3          	fsubabs.s	fs7,ft6,ft7

    fsub.s f4,f20,f18         # x2-x1
 1c8:	092a7253          	fsub.s	ft4,fs4,fs2
    fsub.s f5,f24,f22         # a2-a1
 1cc:	096c72d3          	fsub.s	ft5,fs8,fs6
    fadd.s f26,f4,f5          # x_delta=(x2-x1+a2-a1)
 1d0:	00527d53          	fadd.s	fs10,ft4,ft5

    fsub.s f6,f21,f19         # y2-y1
 1d4:	093af353          	fsub.s	ft6,fs5,fs3
    fsub.s f7,f25,f23         # b2-b1
 1d8:	097cf3d3          	fsub.s	ft7,fs9,fs7
    fadd.s f27,f6,f7          # y_delta=(y2-y1+b2-b1)
 1dc:	00737dd3          	fadd.s	fs11,ft6,ft7

# 四个条件一个满足x24就为1
    add x24,x0,x0        # 初始化x24为0
 1e0:	00000c33          	add	s8,zero,zero
    flt.s x24,f26,f22      # |xmid1-xmid2|>x_delta则x24=1
 1e4:	a16d1c53          	flt.s	s8,fs10,fs6
    bne x24,x0,MARK31    # 若x24是1，则跳转MARK31
 1e8:	020c1863          	bnez	s8,218 <MARK31>
    flt.s x24,f27,f23      # |ymid2-ymid1|>y_delta则x24=1
 1ec:	a17d9c53          	flt.s	s8,fs11,fs7
    bne x24,x0,MARK31    # 若x24是1，则跳转MARK31
 1f0:	020c1463          	bnez	s8,218 <MARK31>
   
# 否则计算son
    fsubabs.s f26,f28,f29  # w=|xx1-xx2|
 1f4:	05de7d53          	fsubabs.s	fs10,ft8,ft9
    fsubabs.s f27,f30,f31  # h=|yy1-yy2|
 1f8:	05ff7dd3          	fsubabs.s	fs11,ft10,ft11
    fmul.s f1,f26,f27      # son=h*w
 1fc:	11bd70d3          	fmul.s	ft1,fs10,fs11

    fsub.s f2,f2,f1        # mother=mother-son
 200:	08117153          	fsub.s	ft2,ft2,ft1

00000204 <BACK31>:

# 计算 IoU 
BACK31:
    fdiv.s f3,f1,f2        # IoU=son/mother
 204:	1820f1d3          	fdiv.s	ft3,ft1,ft2
    flt.s x24,f9,f3        # if IoU>THRESHOLD, x24=1
 208:	a0349c53          	flt.s	s8,fs1,ft3
    bne x24,x0,MARK41    # if x24=1,jump
 20c:	000c1a63          	bnez	s8,220 <MARK41>

00000210 <MARK2>:

MARK2:                                      
    # addi x7,x7,1         # i++
    # blt x7,x5,BACK1      # if i < NUM_BOX, for loop continues
    plusonelt x7,x5,BACK1
 210:	f253ae8b          	plusonelt	t2,t0,14c <BACK1>
    j BEGIN            # loop 结束后，无条件跳转到 while 开始，check find_max 函数
 214:	ea1ff06f          	j	b4 <BEGIN>

00000218 <MARK31>:

#######################################################  
MARK31:
    fadd.s f1,f0,f0       # son=0
 218:	000070d3          	fadd.s	ft1,ft0,ft0
    j BACK31
 21c:	fe9ff06f          	j	204 <BACK31>

00000220 <MARK41>:

MARK41:    
    addrfive x18,x9,x7   # box_info[i] 绝对地址
 220:	0274990b          	addrfive	s2,s1,t2
    sw x0,0x1c(x18)      # box_info[i].valid_bit=false
 224:	00092e23          	sw	zero,28(s2)
    j MARK2
 228:	fe9ff06f          	j	210 <MARK2>

0000022c <MARK51>:

    
MARK51:
    sw x22,0x0(x18)      # box_info[i].id 存到 max_box[box_info[i].class_]里去
 22c:	01692023          	sw	s6,0(s2)
    j MARK3
 230:	ed9ff06f          	j	108 <MARK3>

00000234 <MARK52>:
    
MARK52:
    addrtwo x18,x28,x21
 234:	015e190b          	addrtwo	s2,t3,s5
    # mul x18,x21,x26      # box_info[i]*4
    # add x18,x28,x18      # +max_box_base_addr  x18存的是 max_box[box_info[i].class_] 的绝对地址
    sw x22,0x0(x18)      # max_box[box_info[i].class_]=box_info[i].id
 238:	01692023          	sw	s6,0(s2)
    j MARK3
 23c:	ecdff06f          	j	108 <MARK3>

00000240 <MARK61>:

    
MARK61:
    add x29,x0,x0        # find_max() 返回 0
 240:	00000eb3          	add	t4,zero,zero
    j BACK61
 244:	ef5ff06f          	j	138 <BACK61>

00000248 <OVER>:

    
OVER:
    li x30,0x10000460    # RES_BASE_ADDR      # 栈指针用来存放基地址
 248:	10000f37          	lui	t5,0x10000
 24c:	460f0f13          	addi	t5,t5,1120 # 10000460 <_stack_start+0xfff0460>
    flw f4,0x0(x30)
 250:	000f2207          	flw	ft4,0(t5)
    flw f5,0x4(x30)
 254:	004f2287          	flw	ft5,4(t5)
    flw f6,0x8(x30)
 258:	008f2307          	flw	ft6,8(t5)
    flw f7,0xc(x30)
 25c:	00cf2387          	flw	ft7,12(t5)
    flw f18,0x10(x30)
 260:	010f2907          	flw	fs2,16(t5)
    flw f19,0x14(x30)
 264:	014f2987          	flw	fs3,20(t5)
    flw f20,0x18(x30)
 268:	018f2a07          	flw	fs4,24(t5)
    
    li x19,0x40013000   # GPIO_BASE_ADDR
 26c:	400139b7          	lui	s3,0x40013
    fsw f4,0x0(x19)
 270:	0049a027          	fsw	ft4,0(s3) # 40013000 <_stack_start+0x40003000>
    fsw f5,0x4(x19)
 274:	0059a227          	fsw	ft5,4(s3)
    fsw f6,0x8(x19)
 278:	0069a427          	fsw	ft6,8(s3)
    fsw f7,0xc(x19)
 27c:	0079a627          	fsw	ft7,12(s3)
    fsw f18,0x10(x19)
 280:	0129a827          	fsw	fs2,16(s3)
    fsw f19,0x14(x19)
 284:	0139aa27          	fsw	fs3,20(s3)
    fsw f20,0x18(x19)
 288:	0149ac27          	fsw	fs4,24(s3)

0000028c <default_exc_handler>:
  jal x0, default_exc_handler
 28c:	0000006f          	j	28c <default_exc_handler>

00000290 <reset_handler>:
  mv  x1, x0
 290:	00000093          	li	ra,0
  mv  x2, x1
 294:	00008113          	mv	sp,ra
  mv  x3, x1
 298:	00008193          	mv	gp,ra
  mv  x4, x1
 29c:	00008213          	mv	tp,ra
  mv  x5, x1
 2a0:	00008293          	mv	t0,ra
  mv  x6, x1
 2a4:	00008313          	mv	t1,ra
  mv  x7, x1
 2a8:	00008393          	mv	t2,ra
  mv  x8, x1
 2ac:	00008413          	mv	s0,ra
  mv  x9, x1
 2b0:	00008493          	mv	s1,ra
  mv x10, x1
 2b4:	00008513          	mv	a0,ra
  mv x11, x1
 2b8:	00008593          	mv	a1,ra
  mv x12, x1
 2bc:	00008613          	mv	a2,ra
  mv x13, x1
 2c0:	00008693          	mv	a3,ra
  mv x14, x1
 2c4:	00008713          	mv	a4,ra
  mv x15, x1
 2c8:	00008793          	mv	a5,ra
  mv x16, x1
 2cc:	00008813          	mv	a6,ra
  mv x17, x1
 2d0:	00008893          	mv	a7,ra
  mv x18, x1
 2d4:	00008913          	mv	s2,ra
  mv x19, x1
 2d8:	00008993          	mv	s3,ra
  mv x20, x1
 2dc:	00008a13          	mv	s4,ra
  mv x21, x1
 2e0:	00008a93          	mv	s5,ra
  mv x22, x1
 2e4:	00008b13          	mv	s6,ra
  mv x23, x1
 2e8:	00008b93          	mv	s7,ra
  mv x24, x1
 2ec:	00008c13          	mv	s8,ra
  mv x25, x1
 2f0:	00008c93          	mv	s9,ra
  mv x26, x1
 2f4:	00008d13          	mv	s10,ra
  mv x27, x1
 2f8:	00008d93          	mv	s11,ra
  mv x28, x1
 2fc:	00008e13          	mv	t3,ra
  mv x29, x1
 300:	00008e93          	mv	t4,ra
  mv x30, x1
 304:	00008f13          	mv	t5,ra
  mv x31, x1
 308:	00008f93          	mv	t6,ra
  la   x2, _stack_start
 30c:	00010117          	auipc	sp,0x10
 310:	cf410113          	addi	sp,sp,-780 # 10000 <_stack_start>

00000314 <_start>:
  la x26, _bss_start
 314:	34800d13          	li	s10,840
  la x27, _bss_end
 318:	34800d93          	li	s11,840
  bge x26, x27, zero_loop_end
 31c:	01bd5863          	bge	s10,s11,32c <main_entry>

00000320 <zero_loop>:
  sw x0, 0(x26)
 320:	000d2023          	sw	zero,0(s10)
  addi x26, x26, 4
 324:	004d0d13          	addi	s10,s10,4
  ble x26, x27, zero_loop
 328:	ffaddce3          	bge	s11,s10,320 <zero_loop>

0000032c <main_entry>:
  addi x10, x0, 0
 32c:	00000513          	li	a0,0
  addi x11, x0, 0
 330:	00000593          	li	a1,0
  jal x1, main
 334:	d59ff0ef          	jal	ra,8c <_stext>

00000338 <__CTOR_LIST__>:
	...

00000340 <__CTOR_END__>:
	...
